target datalayout = "e-m:e-p270:32:32-p271:32:32-p272:64:64-i64:64-i128:128-f80:128-n8:16:32:64-S128"
target triple = "x86_64-pc-linux-gnu"

%struct._GValue = type { i64, [2 x %union.anon] }
%union.anon = type { i64 }

@.str.182 = private unnamed_addr constant [3 x i8] c"$(\00", align 1
@.str.183 = private unnamed_addr constant [4 x i8] c"%s)\00", align 1

; Function Attrs: nounwind uwtable
define internal i32 @on_match_select(ptr noundef %0, ptr noundef %1, ptr noundef %2, ptr noundef %3) #0 {
  %5 = alloca ptr, align 8
  %6 = alloca ptr, align 8
  %7 = alloca ptr, align 8
  %8 = alloca ptr, align 8
  %9 = alloca ptr, align 8
  %10 = alloca ptr, align 8
  %11 = alloca ptr, align 8
  %12 = alloca i32, align 4
  %13 = alloca i32, align 4
  %14 = alloca %struct._GValue, align 8
  %15 = alloca i64, align 8
  %16 = alloca ptr, align 8
  store ptr %0, ptr %5, align 8, !tbaa !13
  store ptr %1, ptr %6, align 8, !tbaa !21
  store ptr %2, ptr %7, align 8, !tbaa !23
  store ptr %3, ptr %8, align 8, !tbaa !25
  call void @llvm.lifetime.start.p0(i64 8, ptr %9) #9
  call void @llvm.lifetime.start.p0(i64 8, ptr %10) #9
  %17 = load ptr, ptr %5, align 8, !tbaa !13
  %18 = call ptr @gtk_entry_completion_get_entry(ptr noundef %17)
  store ptr %18, ptr %10, align 8, !tbaa !26
  call void @llvm.lifetime.start.p0(i64 8, ptr %11) #9
  %19 = load ptr, ptr %10, align 8, !tbaa !26
  %20 = call ptr @gtk_editable_get_chars(ptr noundef %19, i32 noundef 0, i32 noundef -1)
  store ptr %20, ptr %11, align 8, !tbaa !28
  call void @llvm.lifetime.start.p0(i64 4, ptr %12) #9
  %21 = load ptr, ptr %10, align 8, !tbaa !26
  %22 = call i32 @gtk_editable_get_position(ptr noundef %21)
  store i32 %22, ptr %12, align 4, !tbaa !29
  call void @llvm.lifetime.start.p0(i64 4, ptr %13) #9
  %23 = load i32, ptr %12, align 4, !tbaa !29
  store i32 %23, ptr %13, align 4, !tbaa !29
  call void @llvm.lifetime.start.p0(i64 24, ptr %14) #9
  call void @llvm.memset.p0.i64(ptr align 8 %14, i8 0, i64 24, i1 false)
  %24 = load ptr, ptr %6, align 8, !tbaa !21
  %25 = load ptr, ptr %7, align 8, !tbaa !23
  call void @gtk_tree_model_get_value(ptr noundef %24, ptr noundef %25, i32 noundef 0, ptr noundef %14)
  %26 = call ptr @g_value_get_string(ptr noundef %14)
  store ptr %26, ptr %9, align 8, !tbaa !28
  %27 = load i32, ptr %12, align 4, !tbaa !29
  store i32 %27, ptr %13, align 4, !tbaa !29
  br label %28

28:                                               ; preds = %42, %4
  %29 = load i32, ptr %13, align 4, !tbaa !29
  %30 = sub nsw i32 %29, 2
  %31 = icmp sgt i32 %30, 0
  br i1 %31, label %32, label %45

32:                                               ; preds = %28
  %33 = load ptr, ptr %11, align 8, !tbaa !28
  %34 = load i32, ptr %13, align 4, !tbaa !29
  %35 = sext i32 %34 to i64
  %36 = getelementptr inbounds i8, ptr %33, i64 %35
  %37 = getelementptr inbounds i8, ptr %36, i64 -2
  %38 = call i32 @strncmp(ptr noundef %37, ptr noundef @.str.182, i64 noundef 2) #11
  %39 = icmp eq i32 %38, 0
  br i1 %39, label %40, label %41

40:                                               ; preds = %32
  br label %45

41:                                               ; preds = %32
  br label %42

42:                                               ; preds = %41
  %43 = load i32, ptr %13, align 4, !tbaa !29
  %44 = add nsw i32 %43, -1
  store i32 %44, ptr %13, align 4, !tbaa !29
  br label %28

45:                                               ; preds = %40, %28
  call void @llvm.lifetime.start.p0(i64 8, ptr %15) #9
  %46 = load ptr, ptr %9, align 8, !tbaa !28
  %47 = call i64 @strlen(ptr noundef %46) #11
  %48 = add i64 %47, 2
  store i64 %48, ptr %15, align 8, !tbaa !31
  call void @llvm.lifetime.start.p0(i64 8, ptr %16) #9
  %49 = load i64, ptr %15, align 8, !tbaa !31
  %50 = call noalias ptr @g_malloc(i64 noundef %49) #12
  store ptr %50, ptr %16, align 8, !tbaa !28
  %51 = load ptr, ptr %16, align 8, !tbaa !28
  %52 = load i64, ptr %15, align 8, !tbaa !31
  %53 = load ptr, ptr %9, align 8, !tbaa !28
  %54 = call i32 (ptr, i64, ptr, ...) @snprintf(ptr noundef %51, i64 noundef %52, ptr noundef @.str.183, ptr noundef %53) #9
  %55 = load ptr, ptr %10, align 8, !tbaa !26
  %56 = load i32, ptr %13, align 4, !tbaa !29
  %57 = load i32, ptr %12, align 4, !tbaa !29
  call void @gtk_editable_delete_text(ptr noundef %55, i32 noundef %56, i32 noundef %57)
  %58 = load ptr, ptr %10, align 8, !tbaa !26
  %59 = load ptr, ptr %16, align 8, !tbaa !28
  call void @gtk_editable_insert_text(ptr noundef %58, ptr noundef %59, i32 noundef -1, ptr noundef %13)
  %60 = load ptr, ptr %10, align 8, !tbaa !26
  %61 = load i32, ptr %13, align 4, !tbaa !29
  call void @gtk_editable_set_position(ptr noundef %60, i32 noundef %61)
  call void @g_value_unset(ptr noundef %14)
  %62 = load ptr, ptr %16, align 8, !tbaa !28
  call void @g_free(ptr noundef %62)
  %63 = load ptr, ptr %11, align 8, !tbaa !28
  call void @g_free(ptr noundef %63)
  call void @llvm.lifetime.end.p0(i64 8, ptr %16) #9
  call void @llvm.lifetime.end.p0(i64 8, ptr %15) #9
  call void @llvm.lifetime.end.p0(i64 24, ptr %14) #9
  call void @llvm.lifetime.end.p0(i64 4, ptr %13) #9
  call void @llvm.lifetime.end.p0(i64 4, ptr %12) #9
  call void @llvm.lifetime.end.p0(i64 8, ptr %11) #9
  call void @llvm.lifetime.end.p0(i64 8, ptr %10) #9
  call void @llvm.lifetime.end.p0(i64 8, ptr %9) #9
  ret i32 1
}