; Function Attrs: nounwind uwtable
define internal noundef i32 @on_match_select(ptr noundef %0, ptr noundef %1, ptr noundef %2, ptr readnone captures(none) %3) #0 {
  %5 = alloca i32, align 4
  %6 = alloca %struct._GValue, align 8
  %7 = tail call ptr @gtk_entry_completion_get_entry(ptr noundef %0) #12
  %8 = tail call ptr @gtk_editable_get_chars(ptr noundef %7, i32 noundef 0, i32 noundef -1) #12
  %9 = tail call i32 @gtk_editable_get_position(ptr noundef %7) #12
  call void @llvm.lifetime.start.p0(i64 4, ptr nonnull %5) #12
  call void @llvm.lifetime.start.p0(i64 24, ptr nonnull %6) #12
  call void @llvm.memset.p0.i64(ptr noundef nonnull align 8 dereferenceable(24) %6, i8 0, i64 24, i1 false)
  call void @gtk_tree_model_get_value(ptr noundef %1, ptr noundef %2, i32 noundef 0, ptr noundef nonnull %6) #12
  %10 = call ptr @g_value_get_string(ptr noundef nonnull %6) #12
  %invariant.gep = getelementptr i8, ptr %8, i64 -2
  store i32 %9, ptr %5, align 4, !tbaa !13
  %11 = icmp sgt i32 %9, 2
  br i1 %11, label %sub_0.preheader, label %.tail._crit_edge

sub_0.preheader:                                  ; preds = %4
  %12 = zext nneg i32 %9 to i64
  br label %sub_0

.tail.thread:                                     ; preds = %sub_0, %.tail
  %indvars.iv.next = add nsw i64 %indvars.iv, -1
  %13 = trunc nuw nsw i64 %indvars.iv.next to i32
  store i32 %13, ptr %5, align 4, !tbaa !13
  %14 = icmp sgt i64 %indvars.iv, 3
  br i1 %14, label %sub_0, label %.tail._crit_edge

sub_0:                                            ; preds = %sub_0.preheader, %.tail.thread
  %15 = phi i32 [ %9, %sub_0.preheader ], [ %13, %.tail.thread ]
  %indvars.iv = phi i64 [ %12, %sub_0.preheader ], [ %indvars.iv.next, %.tail.thread ]
  %gep = getelementptr i8, ptr %invariant.gep, i64 %indvars.iv
  %16 = load i8, ptr %gep, align 1
  %.not = icmp eq i8 %16, 36
  br i1 %.not, label %.tail, label %.tail.thread

.tail:                                            ; preds = %sub_0
  %17 = getelementptr inbounds nuw i8, ptr %gep, i64 1
  %18 = load i8, ptr %17, align 1
  %19 = icmp eq i8 %18, 40
  br i1 %19, label %.tail._crit_edge, label %.tail.thread

.tail._crit_edge:                                 ; preds = %.tail.thread, %.tail, %4
  %20 = phi i32 [ %9, %4 ], [ %13, %.tail.thread ], [ %15, %.tail ]
  %21 = call i64 @strlen(ptr noundef nonnull dereferenceable(1) %10) #14
  %22 = add i64 %21, 2
  %23 = call noalias ptr @g_malloc(i64 noundef %22) #15
  %24 = call i32 (ptr, i64, ptr, ...) @snprintf(ptr noundef %23, i64 noundef %22, ptr noundef nonnull @.str.183, ptr noundef nonnull %10) #12
  call void @gtk_editable_delete_text(ptr noundef %7, i32 noundef %20, i32 noundef %9) #12
  call void @gtk_editable_insert_text(ptr noundef %7, ptr noundef %23, i32 noundef -1, ptr noundef nonnull %5) #12
  %25 = load i32, ptr %5, align 4, !tbaa !13
  call void @gtk_editable_set_position(ptr noundef %7, i32 noundef %25) #12
  call void @g_value_unset(ptr noundef nonnull %6) #12
  call void @g_free(ptr noundef %23) #12
  call void @g_free(ptr noundef %8) #12
  call void @llvm.lifetime.end.p0(i64 24, ptr nonnull %6) #12
  call void @llvm.lifetime.end.p0(i64 4, ptr nonnull %5) #12
  ret i32 1
}